; Function Attrs: nounwind uwtable
define internal range(i32 -1, 1) i32 @H5FD__splitter_flush(ptr noundef readonly captures(none) %0, i64 noundef %1, i1 noundef zeroext %2) #0 {
  %4 = load i8, ptr @H5FD_init_g, align 1, !tbaa !3, !range !7, !noundef !8
  %5 = trunc nuw i8 %4 to i1
  %6 = load i8, ptr @H5_libterm_g, align 1, !range !7
  %7 = trunc nuw i8 %6 to i1
  %8 = xor i1 %7, true
  %9 = select i1 %5, i1 true, i1 %8
  br i1 %9, label %10, label %32, !prof !9

10:                                               ; preds = %3
  %11 = getelementptr inbounds nuw i8, ptr %0, i64 8304
  %12 = load ptr, ptr %11, align 8, !tbaa !33
  %13 = tail call i32 @H5FDflush(ptr noundef %12, i64 noundef %1, i1 noundef zeroext %2) #12
  %14 = icmp slt i32 %13, 0
  br i1 %14, label %15, label %19

15:                                               ; preds = %10
  %16 = load i64, ptr @H5E_VFL_g, align 8, !tbaa !10
  %17 = load i64, ptr @H5E_CANTFLUSH_g, align 8, !tbaa !10
  %18 = tail call i32 (ptr, ptr, i32, i64, i64, ptr, ...) @H5E_printf_stack(ptr noundef nonnull @.str, ptr noundef nonnull @__func__.H5FD__splitter_flush, i32 noundef 558, i64 noundef %16, i64 noundef %17, ptr noundef nonnull @.str.62) #12
  br label %32

19:                                               ; preds = %10
  %20 = getelementptr inbounds nuw i8, ptr %0, i64 8312
  %21 = load ptr, ptr %20, align 8, !tbaa !43
  %22 = tail call i32 @H5FDflush(ptr noundef %21, i64 noundef %1, i1 noundef zeroext %2) #12
  %23 = icmp slt i32 %22, 0
  br i1 %23, label %24, label %32

24:                                               ; preds = %19
  tail call fastcc void @H5FD__splitter_log_error(ptr noundef nonnull %0, ptr noundef nonnull @__func__.H5FD__splitter_flush, ptr noundef nonnull @.str.63)
  %25 = getelementptr inbounds nuw i8, ptr %0, i64 8298
  %26 = load i8, ptr %25, align 2, !tbaa !39, !range !7, !noundef !8
  %27 = icmp eq i8 %26, 0
  br i1 %27, label %28, label %32

28:                                               ; preds = %24
  %29 = load i64, ptr @H5E_VFL_g, align 8, !tbaa !10
  %30 = load i64, ptr @H5E_CANTFLUSH_g, align 8, !tbaa !10
  %31 = tail call i32 (ptr, ptr, i32, i64, i64, ptr, ...) @H5E_printf_stack(ptr noundef nonnull @.str, ptr noundef nonnull @__func__.H5FD__splitter_flush, i32 noundef 560, i64 noundef %29, i64 noundef %30, ptr noundef nonnull @.str.63) #12
  br label %32

32:                                               ; preds = %15, %28, %24, %19, %3
  %.0 = phi i32 [ -1, %15 ], [ -1, %28 ], [ 0, %24 ], [ 0, %19 ], [ 0, %3 ]
  ret i32 %.0
}